target datalayout = "e-m:e-p270:32:32-p271:32:32-p272:64:64-i64:64-i128:128-f80:128-n8:16:32:64-S128"
target triple = "x86_64-pc-linux-gnu"

@_ZN9G1CardSet17_split_card_shiftE = hidden global i32 0, align 4
@_ZN9G1CardSet16_split_card_maskE = hidden global i64 0, align 8

; Function Attrs: mustprogress nounwind uwtable
define hidden void @_ZNK9G1CardSet10split_cardEmRjS0_(ptr noundef nonnull align 8 dereferenceable(40) %0, i64 noundef %1, ptr noundef nonnull align 4 dereferenceable(4) %2, ptr noundef nonnull align 4 dereferenceable(4) %3) #1 align 2 {
  %5 = alloca ptr, align 8
  %6 = alloca i64, align 8
  %7 = alloca ptr, align 8
  %8 = alloca ptr, align 8
  store ptr %0, ptr %5, align 8
  store i64 %1, ptr %6, align 8
  store ptr %2, ptr %7, align 8
  store ptr %3, ptr %8, align 8
  %9 = load i64, ptr %6, align 8
  %10 = load i32, ptr @_ZN9G1CardSet17_split_card_shiftE, align 4
  %11 = zext i32 %10 to i64
  %12 = lshr i64 %9, %11
  %13 = trunc i64 %12 to i32
  %14 = load ptr, ptr %7, align 8
  store i32 %13, ptr %14, align 4
  %15 = load i64, ptr %6, align 8
  %16 = load i64, ptr @_ZN9G1CardSet16_split_card_maskE, align 8
  %17 = and i64 %15, %16
  %18 = trunc i64 %17 to i32
  %19 = load ptr, ptr %8, align 8
  store i32 %18, ptr %19, align 4
  ret void
}

; Function Attrs: mustprogress nounwind uwtable
define hidden noundef i32 @_ZN9G1CardSet8add_cardEm(ptr noundef nonnull align 8 dereferenceable(40) %0, i64 noundef %1) #1 align 2 {
  %3 = alloca ptr, align 8
  %4 = alloca i64, align 8
  %5 = alloca i32, align 4
  %6 = alloca i32, align 4
  store ptr %0, ptr %3, align 8
  store i64 %1, ptr %4, align 8
  %7 = load ptr, ptr %3, align 8
  %8 = load i64, ptr %4, align 8
  call void @_ZNK9G1CardSet10split_cardEmRjS0_(ptr noundef nonnull align 8 dereferenceable(40) %7, i64 noundef %8, ptr noundef nonnull align 4 dereferenceable(4) %5, ptr noundef nonnull align 4 dereferenceable(4) %6)
  %9 = load i32, ptr %5, align 4
  %10 = load i32, ptr %6, align 4
  %11 = call noundef i32 @_ZN9G1CardSet8add_cardEjjb(ptr noundef nonnull align 8 dereferenceable(40) %7, i32 noundef %9, i32 noundef %10, i1 noundef zeroext true)
  ret i32 %11
}