; Function Attrs: mustprogress nounwind uwtable
define hidden noundef range(i32 1, 0) i32 @_ZN9G1CardSet8add_cardEm(ptr noundef nonnull align 8 dereferenceable(40) %0, i64 noundef %1) local_unnamed_addr #1 align 2 {
  %3 = load i32, ptr @_ZN9G1CardSet17_split_card_shiftE, align 4
  %4 = zext nneg i32 %3 to i64
  %5 = lshr i64 %1, %4
  %6 = trunc i64 %5 to i32
  %7 = load i64, ptr @_ZN9G1CardSet16_split_card_maskE, align 8
  %8 = and i64 %7, %1
  %9 = trunc i64 %8 to i32
  %10 = tail call noundef i32 @_ZN9G1CardSet8add_cardEjjb(ptr noundef nonnull align 8 dereferenceable(40) %0, i32 noundef %6, i32 noundef %9, i1 noundef zeroext true)
  ret i32 %10
}